target datalayout = "e-m:e-p270:32:32-p271:32:32-p272:64:64-i64:64-i128:128-f80:128-n8:16:32:64-S128"
target triple = "x86_64-pc-linux-gnu"

%"class.std::filesystem::__cxx11::path" = type { %"class.std::__cxx11::basic_string", %"struct.std::filesystem::__cxx11::path::_List" }
%"class.std::__cxx11::basic_string" = type { %"struct.std::__cxx11::basic_string<char>::_Alloc_hider", i64, %union.anon }
%"struct.std::__cxx11::basic_string<char>::_Alloc_hider" = type { ptr }
%union.anon = type { i64, [8 x i8] }
%"struct.std::filesystem::__cxx11::path::_List" = type { %"class.std::unique_ptr" }
%"class.std::unique_ptr" = type { %"struct.std::__uniq_ptr_data" }
%"struct.std::__uniq_ptr_data" = type { %"class.std::__uniq_ptr_impl" }
%"class.std::__uniq_ptr_impl" = type { %"class.std::tuple" }
%"class.std::tuple" = type { %"struct.std::_Tuple_impl" }
%"struct.std::_Tuple_impl" = type { %"struct.std::_Head_base.1" }
%"struct.std::_Head_base.1" = type { ptr }

@.str.63 = private unnamed_addr constant [124 x i8] c"generated/home/dtcxzyw/WorkSpace/Projects/compilers/llvm-opt-benchmark/bench/gromacs/gromacs/src/gromacs/topology/index.cpp\00", align 1
@.str.76 = private unnamed_addr constant [76 x i8] c"%s atom number (index[%d]=%d) is larger than the number of atoms in %s (%d)\00", align 1
@.str.77 = private unnamed_addr constant [6 x i8] c"Index\00", align 1
@.str.78 = private unnamed_addr constant [15 x i8] c"the trajectory\00", align 1
@.str.79 = private unnamed_addr constant [48 x i8] c"%s atom number (index[%d]=%d) is less than zero\00", align 1

; Function Attrs: mustprogress uwtable
define void @_Z11check_indexPKciPiS0_i(ptr noundef %0, i32 noundef %1, ptr noundef %2, ptr noundef %3, i32 noundef %4) #0 personality ptr @__gxx_personality_v0 {
  %6 = alloca ptr, align 8
  %7 = alloca i32, align 4
  %8 = alloca ptr, align 8
  %9 = alloca ptr, align 8
  %10 = alloca i32, align 4
  %11 = alloca i32, align 4
  %12 = alloca %"class.std::filesystem::__cxx11::path", align 8
  %13 = alloca ptr, align 8
  %14 = alloca i32, align 4
  %15 = alloca %"class.std::filesystem::__cxx11::path", align 8
  store ptr %0, ptr %6, align 8
  store i32 %1, ptr %7, align 4
  store ptr %2, ptr %8, align 8
  store ptr %3, ptr %9, align 8
  store i32 %4, ptr %10, align 4
  store i32 0, ptr %11, align 4
  br label %16

16:                                               ; preds = %87, %5
  %17 = load i32, ptr %11, align 4
  %18 = load i32, ptr %7, align 4
  %19 = icmp slt i32 %17, %18
  br i1 %19, label %20, label %90

20:                                               ; preds = %16
  %21 = load ptr, ptr %8, align 8
  %22 = load i32, ptr %11, align 4
  %23 = sext i32 %22 to i64
  %24 = getelementptr inbounds i32, ptr %21, i64 %23
  %25 = load i32, ptr %24, align 4
  %26 = load i32, ptr %10, align 4
  %27 = icmp sge i32 %25, %26
  br i1 %27, label %28, label %57

28:                                               ; preds = %20
  call void @_ZNSt10filesystem7__cxx114pathC2IA124_cS1_EERKT_NS1_6formatE(ptr noundef nonnull align 8 dereferenceable(40) %12, ptr noundef nonnull align 1 dereferenceable(124) @.str.63, i8 noundef zeroext 2)
  %29 = load ptr, ptr %6, align 8
  %30 = icmp ne ptr %29, null
  br i1 %30, label %31, label %33

31:                                               ; preds = %28
  %32 = load ptr, ptr %6, align 8
  br label %34

33:                                               ; preds = %28
  br label %34

34:                                               ; preds = %33, %31
  %35 = phi ptr [ %32, %31 ], [ @.str.77, %33 ]
  %36 = load i32, ptr %11, align 4
  %37 = add nsw i32 %36, 1
  %38 = load ptr, ptr %8, align 8
  %39 = load i32, ptr %11, align 4
  %40 = sext i32 %39 to i64
  %41 = getelementptr inbounds i32, ptr %38, i64 %40
  %42 = load i32, ptr %41, align 4
  %43 = add nsw i32 %42, 1
  %44 = load ptr, ptr %9, align 8
  %45 = icmp ne ptr %44, null
  br i1 %45, label %46, label %48

46:                                               ; preds = %34
  %47 = load ptr, ptr %9, align 8
  br label %49

48:                                               ; preds = %34
  br label %49

49:                                               ; preds = %48, %46
  %50 = phi ptr [ %47, %46 ], [ @.str.78, %48 ]
  %51 = load i32, ptr %10, align 4
  invoke void (i32, ptr, i32, ptr, ...) @_Z9gmx_fataliRKNSt10filesystem7__cxx114pathEiPKcz(i32 noundef 0, ptr noundef nonnull align 8 dereferenceable(40) %12, i32 noundef 676, ptr noundef @.str.76, ptr noundef %35, i32 noundef %37, i32 noundef %43, ptr noundef %50, i32 noundef %51) #14
          to label %52 unwind label %53

52:                                               ; preds = %49
  unreachable

53:                                               ; preds = %49
  %54 = landingpad { ptr, i32 }
          cleanup
  %55 = extractvalue { ptr, i32 } %54, 0
  store ptr %55, ptr %13, align 8
  %56 = extractvalue { ptr, i32 } %54, 1
  store i32 %56, ptr %14, align 4
  call void @_ZNSt10filesystem7__cxx114pathD2Ev(ptr noundef nonnull align 8 dereferenceable(40) %12) #12
  br label %91

57:                                               ; preds = %20
  %58 = load ptr, ptr %8, align 8
  %59 = load i32, ptr %11, align 4
  %60 = sext i32 %59 to i64
  %61 = getelementptr inbounds i32, ptr %58, i64 %60
  %62 = load i32, ptr %61, align 4
  %63 = icmp slt i32 %62, 0
  br i1 %63, label %64, label %85

64:                                               ; preds = %57
  call void @_ZNSt10filesystem7__cxx114pathC2IA124_cS1_EERKT_NS1_6formatE(ptr noundef nonnull align 8 dereferenceable(40) %15, ptr noundef nonnull align 1 dereferenceable(124) @.str.63, i8 noundef zeroext 2)
  %65 = load ptr, ptr %6, align 8
  %66 = icmp ne ptr %65, null
  br i1 %66, label %67, label %69

67:                                               ; preds = %64
  %68 = load ptr, ptr %6, align 8
  br label %70

69:                                               ; preds = %64
  br label %70

70:                                               ; preds = %69, %67
  %71 = phi ptr [ %68, %67 ], [ @.str.77, %69 ]
  %72 = load i32, ptr %11, align 4
  %73 = add nsw i32 %72, 1
  %74 = load ptr, ptr %8, align 8
  %75 = load i32, ptr %11, align 4
  %76 = sext i32 %75 to i64
  %77 = getelementptr inbounds i32, ptr %74, i64 %76
  %78 = load i32, ptr %77, align 4
  %79 = add nsw i32 %78, 1
  invoke void (i32, ptr, i32, ptr, ...) @_Z9gmx_fataliRKNSt10filesystem7__cxx114pathEiPKcz(i32 noundef 0, ptr noundef nonnull align 8 dereferenceable(40) %15, i32 noundef 686, ptr noundef @.str.79, ptr noundef %71, i32 noundef %73, i32 noundef %79) #14
          to label %80 unwind label %81

80:                                               ; preds = %70
  unreachable

81:                                               ; preds = %70
  %82 = landingpad { ptr, i32 }
          cleanup
  %83 = extractvalue { ptr, i32 } %82, 0
  store ptr %83, ptr %13, align 8
  %84 = extractvalue { ptr, i32 } %82, 1
  store i32 %84, ptr %14, align 4
  call void @_ZNSt10filesystem7__cxx114pathD2Ev(ptr noundef nonnull align 8 dereferenceable(40) %15) #12
  br label %91

85:                                               ; preds = %57
  br label %86

86:                                               ; preds = %85
  br label %87

87:                                               ; preds = %86
  %88 = load i32, ptr %11, align 4
  %89 = add nsw i32 %88, 1
  store i32 %89, ptr %11, align 4
  br label %16, !llvm.loop !40

90:                                               ; preds = %16
  ret void

91:                                               ; preds = %81, %53
  %92 = load ptr, ptr %13, align 8
  %93 = load i32, ptr %14, align 4
  %94 = insertvalue { ptr, i32 } poison, ptr %92, 0
  %95 = insertvalue { ptr, i32 } %94, i32 %93, 1
  resume { ptr, i32 } %95
}