; Function Attrs: mustprogress uwtable
define void @_Z11check_indexPKciPiS0_i(ptr noundef %0, i32 noundef %1, ptr nocapture noundef readonly %2, ptr noundef %3, i32 noundef %4) local_unnamed_addr #0 personality ptr @__gxx_personality_v0 {
  %6 = alloca %"class.std::filesystem::__cxx11::path", align 8
  %7 = alloca %"class.std::filesystem::__cxx11::path", align 8
  %8 = icmp sgt i32 %1, 0
  br i1 %8, label %.lr.ph.preheader, label %._crit_edge

.lr.ph.preheader:                                 ; preds = %5
  %wide.trip.count = zext nneg i32 %1 to i64
  br label %.lr.ph

.lr.ph:                                           ; preds = %.lr.ph.preheader, %34
  %indvars.iv = phi i64 [ 0, %.lr.ph.preheader ], [ %indvars.iv.next, %34 ]
  %9 = getelementptr inbounds i32, ptr %2, i64 %indvars.iv
  %10 = load i32, ptr %9, align 4
  %.not = icmp slt i32 %10, %4
  br i1 %.not, label %22, label %11

11:                                               ; preds = %.lr.ph
  %12 = getelementptr inbounds i32, ptr %2, i64 %indvars.iv
  %13 = trunc nuw nsw i64 %indvars.iv to i32
  call void @_ZNSt10filesystem7__cxx114pathC2IA124_cS1_EERKT_NS1_6formatE(ptr noundef nonnull align 8 dereferenceable(40) %6, ptr noundef nonnull align 1 dereferenceable(124) @.str.63, i8 noundef zeroext 2)
  %.not27 = icmp eq ptr %0, null
  %14 = select i1 %.not27, ptr @.str.77, ptr %0
  %15 = add nuw nsw i32 %13, 1
  %16 = load i32, ptr %12, align 4
  %17 = add nsw i32 %16, 1
  %.not28 = icmp eq ptr %3, null
  %18 = select i1 %.not28, ptr @.str.78, ptr %3
  invoke void (i32, ptr, i32, ptr, ...) @_Z9gmx_fataliRKNSt10filesystem7__cxx114pathEiPKcz(i32 noundef 0, ptr noundef nonnull align 8 dereferenceable(40) %6, i32 noundef 676, ptr noundef nonnull @.str.76, ptr noundef nonnull %14, i32 noundef %15, i32 noundef %17, ptr noundef nonnull %18, i32 noundef %4) #24
          to label %19 unwind label %20

19:                                               ; preds = %11
  unreachable

20:                                               ; preds = %11
  %21 = landingpad { ptr, i32 }
          cleanup
  br label %35

22:                                               ; preds = %.lr.ph
  %23 = icmp slt i32 %10, 0
  br i1 %23, label %24, label %34

24:                                               ; preds = %22
  %25 = getelementptr inbounds i32, ptr %2, i64 %indvars.iv
  %26 = trunc nuw nsw i64 %indvars.iv to i32
  call void @_ZNSt10filesystem7__cxx114pathC2IA124_cS1_EERKT_NS1_6formatE(ptr noundef nonnull align 8 dereferenceable(40) %7, ptr noundef nonnull align 1 dereferenceable(124) @.str.63, i8 noundef zeroext 2)
  %.not26 = icmp eq ptr %0, null
  %27 = select i1 %.not26, ptr @.str.77, ptr %0
  %28 = add nuw nsw i32 %26, 1
  %29 = load i32, ptr %25, align 4
  %30 = add nsw i32 %29, 1
  invoke void (i32, ptr, i32, ptr, ...) @_Z9gmx_fataliRKNSt10filesystem7__cxx114pathEiPKcz(i32 noundef 0, ptr noundef nonnull align 8 dereferenceable(40) %7, i32 noundef 686, ptr noundef nonnull @.str.79, ptr noundef nonnull %27, i32 noundef %28, i32 noundef %30) #24
          to label %31 unwind label %32

31:                                               ; preds = %24
  unreachable

32:                                               ; preds = %24
  %33 = landingpad { ptr, i32 }
          cleanup
  br label %35

34:                                               ; preds = %22
  %indvars.iv.next = add nuw nsw i64 %indvars.iv, 1
  %exitcond.not = icmp eq i64 %indvars.iv.next, %wide.trip.count
  br i1 %exitcond.not, label %._crit_edge, label %.lr.ph, !llvm.loop !63

._crit_edge:                                      ; preds = %34, %5
  ret void

35:                                               ; preds = %32, %20
  %.sink = phi ptr [ %7, %32 ], [ %6, %20 ]
  %.pn = phi { ptr, i32 } [ %33, %32 ], [ %21, %20 ]
  call void @_ZNSt10filesystem7__cxx114pathD2Ev(ptr noundef nonnull align 8 dereferenceable(40) %.sink) #21
  resume { ptr, i32 } %.pn
}